target datalayout = "e-m:e-p270:32:32-p271:32:32-p272:64:64-i64:64-i128:128-f80:128-n8:16:32:64-S128"
target triple = "x86_64-pc-linux-gnu"

%struct.print_stream = type { ptr, ptr }

; Function Attrs: mustprogress uwtable
define internal noundef i32 @_ZL13print_line_pdP12print_streamiPKc(ptr noundef %0, i32 noundef %1, ptr noundef %2) #0 {
  %4 = alloca i32, align 4
  %5 = alloca ptr, align 8
  %6 = alloca i32, align 4
  %7 = alloca ptr, align 8
  %8 = alloca ptr, align 8
  store ptr %0, ptr %5, align 8
  store i32 %1, ptr %6, align 4
  store ptr %2, ptr %7, align 8
  %9 = load ptr, ptr %5, align 8
  %10 = icmp ne ptr %9, null
  br i1 %10, label %12, label %11

11:                                               ; preds = %3
  store i32 0, ptr %4, align 4
  br label %24

12:                                               ; preds = %3
  %13 = load ptr, ptr %5, align 8
  %14 = getelementptr inbounds %struct.print_stream, ptr %13, i32 0, i32 1
  %15 = load ptr, ptr %14, align 8
  store ptr %15, ptr %8, align 8
  %16 = load ptr, ptr %8, align 8
  %17 = icmp ne ptr %16, null
  br i1 %17, label %19, label %18

18:                                               ; preds = %12
  store i32 0, ptr %4, align 4
  br label %24

19:                                               ; preds = %12
  %20 = load ptr, ptr %8, align 8
  %21 = load i32, ptr %6, align 4
  %22 = load ptr, ptr %7, align 8
  %23 = call noundef i32 @_ZN11PrintDialog9printLineEiPKc(ptr noundef nonnull align 8 dereferenceable(525) %20, i32 noundef %21, ptr noundef %22)
  store i32 %23, ptr %4, align 4
  br label %24

24:                                               ; preds = %19, %18, %11
  %25 = load i32, ptr %4, align 4
  ret i32 %25
}