; Function Attrs: mustprogress uwtable
define internal noundef i32 @_ZL13print_line_pdP12print_streamiPKc(ptr noundef readonly %0, i32 noundef %1, ptr noundef %2) #0 {
  %.not = icmp eq ptr %0, null
  br i1 %.not, label %9, label %4

4:                                                ; preds = %3
  %5 = getelementptr inbounds i8, ptr %0, i64 8
  %6 = load ptr, ptr %5, align 8
  %.not8 = icmp eq ptr %6, null
  br i1 %.not8, label %9, label %7

7:                                                ; preds = %4
  %8 = tail call noundef i32 @_ZN11PrintDialog9printLineEiPKc(ptr noundef nonnull align 8 dereferenceable(525) %6, i32 noundef %1, ptr noundef %2), !range !12
  br label %9

9:                                                ; preds = %4, %3, %7
  %.0 = phi i32 [ %8, %7 ], [ 0, %3 ], [ 0, %4 ]
  ret i32 %.0
}